(dp0
S'METTS MARK'
p1
(dp2
S'to_messages'
p3
I807
sS'deferral_payments'
p4
S'NaN'
p5
sS'exercised_stock_percentage'
p6
S'NaN'
p7
sS'expenses'
p8
I94299
sS'Total_income'
p9
I1550850
sS'from_poi_frequency'
p10
F1.3103448275862069
sS'poi'
p11
I00
sS'deferred_income'
p12
g5
sS'email_address'
p13
S'mark.metts@enron.com'
p14
sS'long_term_incentive'
p15
g5
sS'restricted_stock_deferred'
p16
g5
sS'shared_receipt_with_poi'
p17
I702
sS'loan_advances'
p18
g5
sS'from_messages'
p19
I29
sS'other'
p20
I1740
sS'director_fees'
p21
g5
sS'bonus'
p22
I600000
sS'total_stock_value'
p23
I585062
sS'from_poi_to_this_person'
p24
I38
sS'from_this_person_to_poi'
p25
I1
sS'restricted_stock'
p26
I585062
sS'salary'
p27
I365788
sS'to_poi_frequency'
p28
F0.0012391573729863693
sS'total_payments'
p29
I1061827
sS'exercised_stock_options'
p30
g5
ssS'BAXTER JOHN C'
p31
(dp32
g3
g5
sg4
I1295738
sg6
F0.6288601858299968
sg8
I11200
sg9
I12090360
sg10
g7
sg11
I00
sg12
I-1386055
sg13
g5
sg15
I1586055
sg16
g5
sg17
g5
sg18
g5
sg19
g5
sg20
I2660303
sg21
g5
sg22
I1200000
sg23
I10623258
sg24
g5
sg25
g5
sg26
I3942714
sg27
I267102
sg28
g7
sg29
I5634343
sg30
I6680544
ssS'ELLIOTT STEVEN'
p33
(dp34
g3
g5
sg4
g5
sg6
F0.7322260877246963
sg8
I78552
sg9
I7199676
sg10
g7
sg11
I00
sg12
I-400729
sg13
S'steven.elliott@enron.com'
p35
sg15
g5
sg16
g5
sg17
g5
sg18
g5
sg19
g5
sg20
I12961
sg21
g5
sg22
I350000
sg23
I6678735
sg24
g5
sg25
g5
sg26
I1788391
sg27
I170941
sg28
g7
sg29
I211725
sg30
I4890344
ssS'CORDES WILLIAM R'
p36
(dp37
g3
I764
sg4
g5
sg6
F0.6278746080900803
sg8
g5
sg9
g7
sg10
F0.8333333333333334
sg11
I00
sg12
g5
sg13
S'bill.cordes@enron.com'
p38
sg15
g5
sg16
g5
sg17
I58
sg18
g5
sg19
I12
sg20
g5
sg21
g5
sg22
g5
sg23
I1038185
sg24
I10
sg25
I0
sg26
I386335
sg27
g5
sg28
F0.0
sg29
g5
sg30
I651850
ssS'HANNON KEVIN P'
p39
(dp40
g3
I1045
sg4
g5
sg6
F0.8665224027607292
sg8
I34039
sg9
I8134358
sg10
F1.0
sg11
I01
sg12
I-3117011
sg13
S'kevin.hannon@enron.com'
p41
sg15
I1617011
sg16
g5
sg17
I1035
sg18
g5
sg19
I32
sg20
I11350
sg21
g5
sg22
I1500000
sg23
I6391065
sg24
I32
sg25
I21
sg26
I853064
sg27
I243293
sg28
F0.020095693779904306
sg29
I288682
sg30
I5538001
ssS'MORDAUNT KRISTINA M'
p42
(dp43
g3
g5
sg4
g5
sg6
g7
sg8
I35018
sg9
I800603
sg10
g7
sg11
I00
sg12
g5
sg13
S'kristina.mordaunt@enron.com'
p44
sg15
g5
sg16
g5
sg17
g5
sg18
g5
sg19
g5
sg20
I1411
sg21
g5
sg22
I325000
sg23
I208510
sg24
g5
sg25
g5
sg26
I208510
sg27
I267093
sg28
g7
sg29
I628522
sg30
g5
ssS'MEYER ROCKFORD G'
p45
(dp46
g3
I232
sg4
I1848227
sg6
F0.5162704668925684
sg8
g5
sg9
g7
sg10
F0.0
sg11
I00
sg12
g5
sg13
S'rockford.meyer@enron.com'
p47
sg15
g5
sg16
g5
sg17
I22
sg18
g5
sg19
I28
sg20
g5
sg21
g5
sg22
g5
sg23
I955873
sg24
I0
sg25
I0
sg26
I462384
sg27
g5
sg28
F0.0
sg29
I1848227
sg30
I493489
ssS'MCMAHON JEFFREY'
p48
(dp49
g3
I2355
sg4
g5
sg6
F0.6639508556067727
sg8
I137108
sg9
I4633303
sg10
F1.2083333333333333
sg11
I00
sg12
g5
sg13
S'jeffrey.mcmahon@enron.com'
p50
sg15
I694862
sg16
g5
sg17
I2228
sg18
g5
sg19
I48
sg20
I297353
sg21
g5
sg22
I2600000
sg23
I1662855
sg24
I58
sg25
I26
sg26
I558801
sg27
I370448
sg28
F0.011040339702760084
sg29
I4099771
sg30
I1104054
ssS'HORTON STANLEY C'
p51
(dp52
g3
I2350
sg4
I3131860
sg6
F0.7180407538025821
sg8
g5
sg9
g7
sg10
F0.04100652376514446
sg11
I00
sg12
g5
sg13
S'stanley.horton@enron.com'
p53
sg15
g5
sg16
g5
sg17
I1074
sg18
g5
sg19
I1073
sg20
g5
sg21
g5
sg22
g5
sg23
I7256648
sg24
I44
sg25
I15
sg26
I2046079
sg27
g5
sg28
F0.006382978723404255
sg29
I3131860
sg30
I5210569
ssS'PIPER GREGORY F'
p54
(dp55
g3
I1238
sg4
I1130036
sg6
F1.0
sg8
I43057
sg9
I1477381
sg10
F0.2747747747747748
sg11
I00
sg12
I-33333
sg13
S'greg.piper@enron.com'
p56
sg15
g5
sg16
I-409554
sg17
I742
sg18
g5
sg19
I222
sg20
I778
sg21
g5
sg22
I400000
sg23
I880290
sg24
I61
sg25
I48
sg26
I409554
sg27
I197091
sg28
F0.03877221324717286
sg29
I1737629
sg30
I880290
ssS'HUMPHREY GENE E'
p57
(dp58
g3
I128
sg4
I2964506
sg6
F1.0
sg8
I4994
sg9
g7
sg10
F0.5882352941176471
sg11
I00
sg12
g5
sg13
S'gene.humphrey@enron.com'
p59
sg15
g5
sg16
g5
sg17
I119
sg18
g5
sg19
I17
sg20
g5
sg21
g5
sg22
g5
sg23
I2282768
sg24
I10
sg25
I17
sg26
g5
sg27
I130724
sg28
F0.1328125
sg29
I3100224
sg30
I2282768
ssS'UMANOFF ADAM S'
p60
(dp61
g3
I111
sg4
g5
sg6
g7
sg8
I53122
sg9
g7
sg10
F0.6666666666666666
sg11
I00
sg12
g5
sg13
S'adam.umanoff@enron.com'
p62
sg15
g5
sg16
g5
sg17
I41
sg18
g5
sg19
I18
sg20
g5
sg21
g5
sg22
I788750
sg23
g5
sg24
I12
sg25
I0
sg26
g5
sg27
I288589
sg28
F0.0
sg29
I1130461
sg30
g5
ssS'BLACHMAN JEREMY M'
p63
(dp64
g3
I2475
sg4
g5
sg6
F0.8019173178925221
sg8
I84208
sg9
I2052900
sg10
F1.7857142857142858
sg11
I00
sg12
g5
sg13
S'jeremy.blachman@enron.com'
p65
sg15
I831809
sg16
g5
sg17
I2326
sg18
g5
sg19
I14
sg20
I272
sg21
g5
sg22
I850000
sg23
I954354
sg24
I25
sg25
I2
sg26
I189041
sg27
I248546
sg28
F0.0008080808080808081
sg29
I2014835
sg30
I765313
ssS'SUNDE MARTIN'
p66
(dp67
g3
I2647
sg4
g5
sg6
g7
sg8
g5
sg9
I1656406
sg10
F0.9736842105263158
sg11
I00
sg12
g5
sg13
S'marty.sunde@enron.com'
p68
sg15
I476451
sg16
g5
sg17
I2565
sg18
g5
sg19
I38
sg20
I111122
sg21
g5
sg22
I700000
sg23
I698920
sg24
I37
sg25
I13
sg26
I698920
sg27
I257486
sg28
F0.004911220249338874
sg29
I1545059
sg30
g5
ssS'GIBBS DANA R'
p69
(dp70
g3
I169
sg4
I504610
sg6
F1.0
sg8
g5
sg9
g7
sg10
F0.0
sg11
I00
sg12
g5
sg13
S'dana.gibbs@enron.com'
p71
sg15
I461912
sg16
g5
sg17
I23
sg18
g5
sg19
I12
sg20
g5
sg21
g5
sg22
g5
sg23
I2218275
sg24
I0
sg25
I0
sg26
g5
sg27
g5
sg28
F0.0
sg29
I966522
sg30
I2218275
ssS'LOWRY CHARLES P'
p72
(dp73
g3
g5
sg4
g5
sg6
F1.0
sg8
g5
sg9
g7
sg10
g7
sg11
I00
sg12
g5
sg13
g5
sg15
g5
sg16
I-153686
sg17
g5
sg18
g5
sg19
g5
sg20
g5
sg21
g5
sg22
g5
sg23
I372205
sg24
g5
sg25
g5
sg26
I153686
sg27
g5
sg28
g7
sg29
g5
sg30
I372205
ssS'COLWELL WESLEY'
p74
(dp75
g3
I1758
sg4
I27610
sg6
g7
sg8
I16514
sg9
I2186784
sg10
F6.0
sg11
I01
sg12
I-144062
sg13
S'wes.colwell@enron.com'
p76
sg15
g5
sg16
g5
sg17
I1132
sg18
g5
sg19
I40
sg20
I101740
sg21
g5
sg22
I1200000
sg23
I698242
sg24
I240
sg25
I11
sg26
I698242
sg27
I288542
sg28
F0.006257110352673493
sg29
I1490344
sg30
g5
ssS'MULLER MARK S'
p77
(dp78
g3
I136
sg4
I842924
sg6
F0.7455422176549636
sg8
g5
sg9
I2768502
sg10
F0.75
sg11
I00
sg12
I-719000
sg13
S's..muller@enron.com'
p79
sg15
I1725545
sg16
g5
sg17
I114
sg18
g5
sg19
I16
sg20
I947
sg21
g5
sg22
I1100000
sg23
I1416848
sg24
I12
sg25
I0
sg26
I360528
sg27
I251654
sg28
F0.0
sg29
I3202070
sg30
I1056320
ssS'JACKSON CHARLENE R'
p80
(dp81
g3
I258
sg4
g5
sg6
F0.25500079230021977
sg8
I10181
sg9
I1264293
sg10
F0.44642857142857145
sg11
I00
sg12
g5
sg13
S'charlene.jackson@enron.com'
p82
sg15
g5
sg16
g5
sg17
I117
sg18
g5
sg19
I56
sg20
I2435
sg21
g5
sg22
I250000
sg23
I725735
sg24
I25
sg25
I19
sg26
I540672
sg27
I288558
sg28
F0.07364341085271318
sg29
I551174
sg30
I185063
ssS'WESTFAHL RICHARD K'
p83
(dp84
g3
g5
sg4
g5
sg6
g7
sg8
I51870
sg9
g7
sg10
g7
sg11
I00
sg12
I-10800
sg13
S'dick.westfahl@enron.com'
p85
sg15
I256191
sg16
g5
sg17
g5
sg18
g5
sg19
g5
sg20
I401130
sg21
g5
sg22
g5
sg23
I384930
sg24
g5
sg25
g5
sg26
I384930
sg27
I63744
sg28
g7
sg29
I762135
sg30
g5
ssS'WALTERS GARETH W'
p86
(dp87
g3
g5
sg4
I53625
sg6
F1.0
sg8
I33785
sg9
g7
sg10
g7
sg11
I00
sg12
g5
sg13
g5
sg15
g5
sg16
g5
sg17
g5
sg18
g5
sg19
g5
sg20
g5
sg21
g5
sg22
g5
sg23
I1030329
sg24
g5
sg25
g5
sg26
g5
sg27
g5
sg28
g7
sg29
I87410
sg30
I1030329
ssS'WALLS JR ROBERT H'
p88
(dp89
g3
I671
sg4
g5
sg6
F0.7368276335790643
sg8
I50936
sg9
I7106088
sg10
F0.11643835616438356
sg11
I00
sg12
g5
sg13
S'rob.walls@enron.com'
p90
sg15
I540751
sg16
g5
sg17
I215
sg18
g5
sg19
I146
sg20
I2
sg21
g5
sg22
I850000
sg23
I5898997
sg24
I17
sg25
I0
sg26
I1552453
sg27
I357091
sg28
F0.0
sg29
I1798780
sg30
I4346544
ssS'KITCHEN LOUISE'
p91
(dp92
g3
I8305
sg4
g5
sg6
F0.14811849918577044
sg8
I5774
sg9
I3918585
sg10
F0.14525462962962962
sg11
I00
sg12
g5
sg13
S'louise.kitchen@enron.com'
p93
sg15
g5
sg16
g5
sg17
I3669
sg18
g5
sg19
I1728
sg20
I93925
sg21
g5
sg22
I3100000
sg23
I547143
sg24
I251
sg25
I194
sg26
I466101
sg27
I271442
sg28
F0.023359422034918725
sg29
I3471141
sg30
I81042
ssS'BELFER ROBERT'
p94
(dp95
g3
g5
sg4
I-102500
sg6
F-0.07450162157258522
sg8
g5
sg9
g7
sg10
g7
sg11
I00
sg12
g5
sg13
g5
sg15
g5
sg16
I44093
sg17
g5
sg18
g5
sg19
g5
sg20
g5
sg21
I3285
sg22
g5
sg23
I-44093
sg24
g5
sg25
g5
sg26
g5
sg27
g5
sg28
g7
sg29
I102500
sg30
I3285
ssS'SHANKMAN JEFFREY A'
p96
(dp97
g3
I3221
sg4
g5
sg6
F0.6958849633331483
sg8
I178979
sg9
I4376145
sg10
F0.0350615441999254
sg11
I00
sg12
g5
sg13
S'jeffrey.shankman@enron.com'
p98
sg15
I554422
sg16
g5
sg17
I1730
sg18
g5
sg19
I2681
sg20
I1191
sg21
g5
sg22
I2000000
sg23
I2072035
sg24
I94
sg25
I83
sg26
I630137
sg27
I304110
sg28
F0.025768394908413535
sg29
I3038702
sg30
I1441898
ssS'BERGSIEKER RICHARD P'
p99
(dp100
g3
I383
sg4
g5
sg6
g7
sg8
I59175
sg9
I1097171
sg10
F0.06779661016949153
sg11
I00
sg12
I-485813
sg13
S'rick.bergsieker@enron.com'
p101
sg15
I180250
sg16
g5
sg17
I233
sg18
g5
sg19
I59
sg20
I427316
sg21
g5
sg22
I250000
sg23
I659249
sg24
I4
sg25
I0
sg26
I659249
sg27
I187922
sg28
F0.0
sg29
I618850
sg30
g5
ssS'URQUHART JOHN A'
p102
(dp103
g3
g5
sg4
g5
sg6
g7
sg8
I228656
sg9
g7
sg10
g7
sg11
I00
sg12
I-36666
sg13
g5
sg15
g5
sg16
g5
sg17
g5
sg18
g5
sg19
g5
sg20
g5
sg21
I36666
sg22
g5
sg23
g5
sg24
g5
sg25
g5
sg26
g5
sg27
g5
sg28
g7
sg29
I228656
sg30
g5
ssS'BIBI PHILIPPE A'
p104
(dp105
g3
I1607
sg4
g5
sg6
F0.7949459165122768
sg8
I38559
sg9
I3057441
sg10
F0.575
sg11
I00
sg12
g5
sg13
S'philippe.bibi@enron.com'
p106
sg15
I369721
sg16
g5
sg17
I1336
sg18
g5
sg19
I40
sg20
I425688
sg21
g5
sg22
I1000000
sg23
I1843816
sg24
I23
sg25
I8
sg26
I378082
sg27
I213625
sg28
F0.004978220286247666
sg29
I2047593
sg30
I1465734
ssS'RIEKER PAULA H'
p107
(dp108
g3
I1328
sg4
I214678
sg6
F0.8521804566918219
sg8
I33271
sg9
I2868088
sg10
F0.4268292682926829
sg11
I01
sg12
I-100000
sg13
S'paula.rieker@enron.com'
p109
sg15
g5
sg16
g5
sg17
I1258
sg18
g5
sg19
I82
sg20
I1950
sg21
g5
sg22
I700000
sg23
I1918887
sg24
I35
sg25
I48
sg26
I283649
sg27
I249201
sg28
F0.03614457831325301
sg29
I1099100
sg30
I1635238
ssS'WHALEY DAVID A'
p110
(dp111
g3
g5
sg4
g5
sg6
F1.0
sg8
g5
sg9
g7
sg10
g7
sg11
I00
sg12
g5
sg13
g5
sg15
g5
sg16
g5
sg17
g5
sg18
g5
sg19
g5
sg20
g5
sg21
g5
sg22
g5
sg23
I98718
sg24
g5
sg25
g5
sg26
g5
sg27
g5
sg28
g7
sg29
g5
sg30
I98718
ssS'BECK SALLY W'
p112
(dp113
g3
I7315
sg4
g5
sg6
g7
sg8
I37172
sg9
I1057357
sg10
F0.033156804052498275
sg11
I00
sg12
g5
sg13
S'sally.beck@enron.com'
p114
sg15
g5
sg16
g5
sg17
I2639
sg18
g5
sg19
I4343
sg20
I566
sg21
g5
sg22
I700000
sg23
I126027
sg24
I144
sg25
I386
sg26
I126027
sg27
I231330
sg28
F0.052768284347231714
sg29
I969068
sg30
g5
ssS'HAUG DAVID L'
p115
(dp116
g3
I573
sg4
g5
sg6
g7
sg8
I475
sg9
g7
sg10
F0.21052631578947367
sg11
I00
sg12
g5
sg13
S'david.haug@enron.com'
p117
sg15
g5
sg16
g5
sg17
I471
sg18
g5
sg19
I19
sg20
g5
sg21
g5
sg22
g5
sg23
I2217299
sg24
I4
sg25
I7
sg26
I2217299
sg27
g5
sg28
F0.012216404886561954
sg29
I475
sg30
g5
ssS'ECHOLS JOHN B'
p118
(dp119
g3
g5
sg4
g5
sg6
F0.5961081966140735
sg8
I21530
sg9
I1391186
sg10
g7
sg11
I00
sg12
g5
sg13
S'john.echols@enron.com'
p120
sg15
I2234774
sg16
g5
sg17
g5
sg18
g5
sg19
g5
sg20
I53775
sg21
g5
sg22
I200000
sg23
I1008941
sg24
g5
sg25
g5
sg26
I407503
sg27
I182245
sg28
g7
sg29
I2692324
sg30
I601438
ssS'MENDELSOHN JOHN'
p121
(dp122
g3
g5
sg4
g5
sg6
g7
sg8
I148
sg9
g7
sg10
g7
sg11
I00
sg12
I-103750
sg13
g5
sg15
g5
sg16
g5
sg17
g5
sg18
g5
sg19
g5
sg20
g5
sg21
I103750
sg22
g5
sg23
g5
sg24
g5
sg25
g5
sg26
g5
sg27
g5
sg28
g7
sg29
I148
sg30
g5
ssS'HICKERSON GARY J'
p123
(dp124
g3
I1320
sg4
g5
sg6
g7
sg8
I98849
sg9
I2352884
sg10
F1.4814814814814814
sg11
I00
sg12
g5
sg13
S'gary.hickerson@enron.com'
p125
sg15
I69223
sg16
g5
sg17
I900
sg18
g5
sg19
I27
sg20
I1936
sg21
g5
sg22
I1700000
sg23
I441096
sg24
I40
sg25
I1
sg26
I441096
sg27
I211788
sg28
F0.0007575757575757576
sg29
I2081796
sg30
g5
ssS'CLINE KENNETH W'
p126
(dp127
g3
g5
sg4
g5
sg6
g7
sg8
g5
sg9
g7
sg10
g7
sg11
I00
sg12
g5
sg13
g5
sg15
g5
sg16
I-472568
sg17
g5
sg18
g5
sg19
g5
sg20
g5
sg21
g5
sg22
g5
sg23
I189518
sg24
g5
sg25
g5
sg26
I662086
sg27
g5
sg28
g7
sg29
g5
sg30
g5
ssS'LEWIS RICHARD'
p128
(dp129
g3
I952
sg4
g5
sg6
F1.0
sg8
g5
sg9
g7
sg10
F0.38461538461538464
sg11
I00
sg12
g5
sg13
S'richard.lewis@enron.com'
p130
sg15
g5
sg16
g5
sg17
I739
sg18
g5
sg19
I26
sg20
g5
sg21
g5
sg22
g5
sg23
I850477
sg24
I10
sg25
I0
sg26
g5
sg27
g5
sg28
F0.0
sg29
g5
sg30
I850477
ssS'HAYES ROBERT E'
p131
(dp132
g3
I504
sg4
I7961
sg6
g7
sg8
g5
sg9
g7
sg10
F1.3333333333333333
sg11
I00
sg12
g5
sg13
S'robert.hayes@enron.com'
p133
sg15
g5
sg16
g5
sg17
I50
sg18
g5
sg19
I12
sg20
g5
sg21
g5
sg22
g5
sg23
I151418
sg24
I16
sg25
I0
sg26
I151418
sg27
g5
sg28
F0.0
sg29
I7961
sg30
g5
ssS'MCCARTY DANNY J'
p134
(dp135
g3
I1433
sg4
g5
sg6
F0.8754089633971995
sg8
g5
sg9
g7
sg10
F0.11627906976744186
sg11
I00
sg12
g5
sg13
S'danny.mccarty@enron.com'
p136
sg15
g5
sg16
g5
sg17
I508
sg18
g5
sg19
I215
sg20
g5
sg21
g5
sg22
g5
sg23
I758931
sg24
I25
sg25
I2
sg26
I94556
sg27
g5
sg28
F0.0013956734124214933
sg29
g5
sg30
I664375
ssS'KOPPER MICHAEL J'
p137
(dp138
g3
g5
sg4
g5
sg6
g7
sg8
I118134
sg9
I2009337
sg10
g7
sg11
I01
sg12
g5
sg13
S'michael.kopper@enron.com'
p139
sg15
I602671
sg16
g5
sg17
g5
sg18
g5
sg19
g5
sg20
I907502
sg21
g5
sg22
I800000
sg23
I985032
sg24
g5
sg25
g5
sg26
I985032
sg27
I224305
sg28
g7
sg29
I2652612
sg30
g5
ssS'LEFF DANIEL P'
p140
(dp141
g3
I2822
sg4
g5
sg6
g7
sg8
g5
sg9
I1634274
sg10
F1.0634920634920635
sg11
I00
sg12
g5
sg13
S'dan.leff@enron.com'
p142
sg15
I1387399
sg16
g5
sg17
I2672
sg18
g5
sg19
I63
sg20
I3083
sg21
g5
sg22
I1000000
sg23
I360528
sg24
I67
sg25
I14
sg26
I360528
sg27
I273746
sg28
F0.004961020552799433
sg29
I2664228
sg30
g5
ssS'LAVORATO JOHN J'
p143
(dp144
g3
I7259
sg4
g5
sg6
F0.80489241252034
sg8
I49537
sg9
I13506432
sg10
F0.20425531914893616
sg11
I00
sg12
g5
sg13
S'john.lavorato@enron.com'
p145
sg15
I2035380
sg16
g5
sg17
I3962
sg18
g5
sg19
I2585
sg20
I1552
sg21
g5
sg22
I8000000
sg23
I5167144
sg24
I528
sg25
I411
sg26
I1008149
sg27
I339288
sg28
F0.05661936905909905
sg29
I10425757
sg30
I4158995
ssS'BERBERIAN DAVID'
p146
(dp147
g3
g5
sg4
g5
sg6
F0.6514218708895034
sg8
I11892
sg9
g7
sg10
g7
sg11
I00
sg12
g5
sg13
S'david.berberian@enron.com'
p148
sg15
g5
sg16
g5
sg17
g5
sg18
g5
sg19
g5
sg20
g5
sg21
g5
sg22
g5
sg23
I2493616
sg24
g5
sg25
g5
sg26
I869220
sg27
I216582
sg28
g7
sg29
I228474
sg30
I1624396
ssS'DETMERING TIMOTHY J'
p149
(dp150
g3
g5
sg4
I875307
sg6
F1.0
sg8
I52255
sg9
I2663365
sg10
g7
sg11
I00
sg12
I-775241
sg13
S'timothy.detmering@enron.com'
p151
sg15
I415657
sg16
I-315068
sg17
g5
sg18
g5
sg19
g5
sg20
I1105
sg21
g5
sg22
I425000
sg23
I2027865
sg24
g5
sg25
g5
sg26
I315068
sg27
I210500
sg28
g7
sg29
I1204583
sg30
I2027865
ssS'WAKEHAM JOHN'
p152
(dp153
g3
g5
sg4
g5
sg6
g7
sg8
I103773
sg9
g7
sg10
g7
sg11
I00
sg12
g5
sg13
g5
sg15
g5
sg16
g5
sg17
g5
sg18
g5
sg19
g5
sg20
g5
sg21
I109298
sg22
g5
sg23
g5
sg24
g5
sg25
g5
sg26
g5
sg27
g5
sg28
g7
sg29
I213071
sg30
g5
ssS'POWERS WILLIAM'
p154
(dp155
g3
I653
sg4
g5
sg6
g7
sg8
g5
sg9
g7
sg10
F0.0
sg11
I00
sg12
I-17500
sg13
S'ken.powers@enron.com'
p156
sg15
g5
sg16
g5
sg17
I12
sg18
g5
sg19
I26
sg20
g5
sg21
I17500
sg22
g5
sg23
g5
sg24
I0
sg25
I0
sg26
g5
sg27
g5
sg28
F0.0
sg29
g5
sg30
g5
ssS'GOLD JOSEPH'
p157
(dp158
g3
g5
sg4
g5
sg6
F0.4973900737342627
sg8
g5
sg9
I1900491
sg10
g7
sg11
I00
sg12
g5
sg13
S'joe.gold@enron.com'
p159
sg15
I304805
sg16
g5
sg17
g5
sg18
g5
sg19
g5
sg20
I819288
sg21
g5
sg22
I750000
sg23
I877611
sg24
g5
sg25
g5
sg26
I441096
sg27
I272880
sg28
g7
sg29
I2146973
sg30
I436515
ssS'BANNANTINE JAMES M'
p160
(dp161
g3
I566
sg4
g5
sg6
F0.7716538631639595
sg8
I56301
sg9
g7
sg10
F1.3448275862068966
sg11
I00
sg12
I-5104
sg13
S'james.bannantine@enron.com'
p162
sg15
g5
sg16
I-560222
sg17
I465
sg18
g5
sg19
I29
sg20
I864523
sg21
g5
sg22
g5
sg23
I5243487
sg24
I39
sg25
I0
sg26
I1757552
sg27
I477
sg28
F0.0
sg29
I916197
sg30
I4046157
ssS'DUNCAN JOHN H'
p163
(dp164
g3
g5
sg4
g5
sg6
F1.0
sg8
g5
sg9
g7
sg10
g7
sg11
I00
sg12
I-25000
sg13
g5
sg15
g5
sg16
g5
sg17
g5
sg18
g5
sg19
g5
sg20
g5
sg21
I102492
sg22
g5
sg23
I371750
sg24
g5
sg25
g5
sg26
g5
sg27
g5
sg28
g7
sg29
I77492
sg30
I371750
ssS'SHAPIRO RICHARD S'
p165
(dp166
g3
I15149
sg4
g5
sg6
F0.6158423345062467
sg8
I137767
sg9
I1906077
sg10
F0.060905349794238686
sg11
I00
sg12
g5
sg13
S'richard.shapiro@enron.com'
p167
sg15
g5
sg16
g5
sg17
I4527
sg18
g5
sg19
I1215
sg20
I705
sg21
g5
sg22
I650000
sg23
I987001
sg24
I74
sg25
I65
sg26
I379164
sg27
I269076
sg28
F0.004290712258234867
sg29
I1057548
sg30
I607837
ssS'SHERRIFF JOHN R'
p168
(dp169
g3
I3187
sg4
g5
sg6
F0.5866310512492562
sg8
g5
sg9
I5057762
sg10
F0.30434782608695654
sg11
I00
sg12
g5
sg13
S'john.sherriff@enron.com'
p170
sg15
I554422
sg16
g5
sg17
I2103
sg18
g5
sg19
I92
sg20
I1852186
sg21
g5
sg22
I1500000
sg23
I3128982
sg24
I28
sg25
I23
sg26
I1293424
sg27
I428780
sg28
F0.0072168183244430495
sg29
I4335388
sg30
I1835558
ssS'SHELBY REX'
p171
(dp172
g3
I225
sg4
g5
sg6
F0.6514218708895034
sg8
I22884
sg9
I2905460
sg10
F0.3333333333333333
sg11
I01
sg12
I-4167
sg13
S'rex.shelby@enron.com'
p173
sg15
g5
sg16
g5
sg17
I91
sg18
g5
sg19
I39
sg20
I1573324
sg21
g5
sg22
I200000
sg23
I2493616
sg24
I13
sg25
I14
sg26
I869220
sg27
I211844
sg28
F0.06222222222222222
sg29
I2003885
sg30
I1624396
ssS'LEMAISTRE CHARLES'
p174
(dp175
g3
g5
sg4
g5
sg6
F1.0
sg8
g5
sg9
g7
sg10
g7
sg11
I00
sg12
I-25000
sg13
g5
sg15
g5
sg16
g5
sg17
g5
sg18
g5
sg19
g5
sg20
g5
sg21
I112492
sg22
g5
sg23
I412878
sg24
g5
sg25
g5
sg26
g5
sg27
g5
sg28
g7
sg29
I87492
sg30
I412878
ssS'DEFFNER JOSEPH M'
p176
(dp177
g3
I714
sg4
g5
sg6
F0.10915074963413332
sg8
I41626
sg9
I965332
sg10
F1.554054054054054
sg11
I00
sg12
g5
sg13
S'joseph.deffner@enron.com'
p178
sg15
I335349
sg16
g5
sg17
I552
sg18
g5
sg19
I74
sg20
I25553
sg21
g5
sg22
I600000
sg23
I159211
sg24
I115
sg25
I4
sg26
I141833
sg27
I206121
sg28
F0.0056022408963585435
sg29
I1208649
sg30
I17378
ssS'KISHKILL JOSEPH G'
p179
(dp180
g3
g5
sg4
g5
sg6
g7
sg8
I116335
sg9
g7
sg10
g7
sg11
I00
sg12
I-51042
sg13
S'joe.kishkill@enron.com'
p181
sg15
g5
sg16
g5
sg17
g5
sg18
g5
sg19
g5
sg20
I465357
sg21
g5
sg22
g5
sg23
I1034346
sg24
g5
sg25
g5
sg26
I1034346
sg27
I174246
sg28
g7
sg29
I704896
sg30
g5
ssS'WHALLEY LAWRENCE G'
p182
(dp183
g3
I6019
sg4
g5
sg6
F0.5400371796194098
sg8
I57838
sg9
I9589501
sg10
F0.3345323741007194
sg11
I00
sg12
g5
sg13
S'greg.whalley@enron.com'
p184
sg15
I808346
sg16
g5
sg17
I3920
sg18
g5
sg19
I556
sg20
I301026
sg21
g5
sg22
I3000000
sg23
I6079137
sg24
I186
sg25
I24
sg26
I2796177
sg27
I510364
sg28
F0.003987373317826882
sg29
I4677574
sg30
I3282960
ssS'MCCONNELL MICHAEL S'
p185
(dp186
g3
I3329
sg4
g5
sg6
F0.5233356947246603
sg8
I81364
sg9
I4566317
sg10
F0.03355215171407731
sg11
I00
sg12
g5
sg13
S'mike.mcconnell@enron.com'
p187
sg15
I554422
sg16
g5
sg17
I2189
sg18
g5
sg19
I2742
sg20
I540
sg21
g5
sg22
I1100000
sg23
I3101279
sg24
I92
sg25
I194
sg26
I1478269
sg27
I365038
sg28
F0.058275758486031844
sg29
I2101364
sg30
I1623010
ssS'PIRO JIM'
p188
(dp189
g3
I58
sg4
g5
sg6
g7
sg8
g5
sg9
g7
sg10
F0.0
sg11
I00
sg12
g5
sg13
S'jim.piro@enron.com'
p190
sg15
g5
sg16
g5
sg17
I3
sg18
g5
sg19
I16
sg20
g5
sg21
g5
sg22
g5
sg23
I47304
sg24
I0
sg25
I1
sg26
I47304
sg27
g5
sg28
F0.017241379310344827
sg29
g5
sg30
g5
ssS'DELAINEY DAVID W'
p191
(dp192
g3
I3093
sg4
g5
sg6
F0.6339091172441614
sg8
I86174
sg9
I6979424
sg10
F0.021505376344086023
sg11
I01
sg12
g5
sg13
S'david.delainey@enron.com'
p193
sg15
I1294981
sg16
g5
sg17
I2097
sg18
g5
sg19
I3069
sg20
I1661
sg21
g5
sg22
I3000000
sg23
I3614261
sg24
I66
sg25
I609
sg26
I1323148
sg27
I365163
sg28
F0.19689621726479145
sg29
I4747979
sg30
I2291113
ssS'SULLIVAN-SHAKLOVITZ COLLEEN'
p194
(dp195
g3
g5
sg4
I181993
sg6
F1.0
sg8
g5
sg9
I1625154
sg10
g7
sg11
I00
sg12
g5
sg13
g5
sg15
I554422
sg16
g5
sg17
g5
sg18
g5
sg19
g5
sg20
I162
sg21
g5
sg22
I100000
sg23
I1362375
sg24
g5
sg25
g5
sg26
g5
sg27
I162779
sg28
g7
sg29
I999356
sg30
I1362375
ssS'WROBEL BRUCE'
p196
(dp197
g3
g5
sg4
g5
sg6
F1.0
sg8
g5
sg9
g7
sg10
g7
sg11
I00
sg12
g5
sg13
g5
sg15
g5
sg16
g5
sg17
g5
sg18
g5
sg19
g5
sg20
g5
sg21
g5
sg22
g5
sg23
I139130
sg24
g5
sg25
g5
sg26
g5
sg27
g5
sg28
g7
sg29
g5
sg30
I139130
ssS'LINDHOLM TOD A'
p198
(dp199
g3
g5
sg4
I204075
sg6
F0.8319804008083003
sg8
I57727
sg9
I3500665
sg10
g7
sg11
I00
sg12
g5
sg13
S'tod.lindholm@enron.com'
p200
sg15
I175000
sg16
g5
sg17
g5
sg18
g5
sg19
g5
sg20
I2630
sg21
g5
sg22
I200000
sg23
I3064208
sg24
g5
sg25
g5
sg26
I514847
sg27
I236457
sg28
g7
sg29
I875889
sg30
I2549361
ssS'MEYER JEROME J'
p201
(dp202
g3
g5
sg4
g5
sg6
g7
sg8
I2151
sg9
g7
sg10
g7
sg11
I00
sg12
I-38346
sg13
g5
sg15
g5
sg16
g5
sg17
g5
sg18
g5
sg19
g5
sg20
g5
sg21
I38346
sg22
g5
sg23
g5
sg24
g5
sg25
g5
sg26
g5
sg27
g5
sg28
g7
sg29
I2151
sg30
g5
ssS'LAY KENNETH L'
p203
(dp204
g3
I4273
sg4
I202911
sg6
F0.6994161972212709
sg8
I99832
sg9
I57182399
sg10
F3.4166666666666665
sg11
I01
sg12
I-300000
sg13
S'kenneth.lay@enron.com'
p205
sg15
I3600000
sg16
g5
sg17
I2411
sg18
I81525000
sg19
I36
sg20
I10359729
sg21
g5
sg22
I7000000
sg23
I49110078
sg24
I123
sg25
I16
sg26
I14761694
sg27
I1072321
sg28
F0.003744441844137608
sg29
I103559793
sg30
I34348384
ssS'BUTTS ROBERT H'
p206
(dp207
g3
g5
sg4
g5
sg6
g7
sg8
I9410
sg9
I1429135
sg10
g7
sg11
I00
sg12
I-75000
sg13
S'bob.butts@enron.com'
p208
sg15
I175000
sg16
g5
sg17
g5
sg18
g5
sg19
g5
sg20
I150656
sg21
g5
sg22
I750000
sg23
I417619
sg24
g5
sg25
g5
sg26
I417619
sg27
I261516
sg28
g7
sg29
I1271582
sg30
g5
ssS'OLSON CINDY K'
p209
(dp210
g3
I1184
sg4
I77716
sg6
F0.6279949500587511
sg8
I63791
sg9
I3685841
sg10
F0.38461538461538464
sg11
I00
sg12
g5
sg13
S'cindy.olson@enron.com'
p211
sg15
I100000
sg16
g5
sg17
I856
sg18
g5
sg19
I52
sg20
I972
sg21
g5
sg22
I750000
sg23
I2606763
sg24
I20
sg25
I15
sg26
I969729
sg27
I329078
sg28
F0.01266891891891892
sg29
I1321557
sg30
I1637034
ssS'MCDONALD REBECCA'
p212
(dp213
g3
I894
sg4
g5
sg6
F0.4477451953036776
sg8
g5
sg9
g7
sg10
F4.153846153846154
sg11
I00
sg12
g5
sg13
S'rebecca.mcdonald@enron.com'
p214
sg15
g5
sg16
g5
sg17
I720
sg18
g5
sg19
I13
sg20
g5
sg21
g5
sg22
g5
sg23
I1691366
sg24
I54
sg25
I1
sg26
I934065
sg27
g5
sg28
F0.0011185682326621924
sg29
g5
sg30
I757301
ssS'CUMBERLAND MICHAEL S'
p215
(dp216
g3
g5
sg4
g5
sg6
g7
sg8
I22344
sg9
I717839
sg10
g7
sg11
I00
sg12
g5
sg13
g5
sg15
I275000
sg16
g5
sg17
g5
sg18
g5
sg19
g5
sg20
I713
sg21
g5
sg22
I325000
sg23
I207940
sg24
g5
sg25
g5
sg26
I207940
sg27
I184899
sg28
g7
sg29
I807956
sg30
g5
ssS'GAHN ROBERT S'
p217
(dp218
g3
g5
sg4
I73122
sg6
F0.2612528914932817
sg8
I50080
sg9
I1020485
sg10
g7
sg11
I00
sg12
I-1042
sg13
g5
sg15
g5
sg16
g5
sg17
g5
sg18
g5
sg19
g5
sg20
I76547
sg21
g5
sg22
I509870
sg23
I318607
sg24
g5
sg25
g5
sg26
I235370
sg27
I192008
sg28
g7
sg29
I900585
sg30
I83237
ssS'MCCLELLAN GEORGE'
p219
(dp220
g3
I1744
sg4
g5
sg6
F0.534640627686971
sg8
I228763
sg9
I2111274
sg10
F1.0612244897959184
sg11
I00
sg12
I-125000
sg13
S'george.mcclellan@enron.com'
p221
sg15
g5
sg16
g5
sg17
I1469
sg18
g5
sg19
I49
sg20
I51587
sg21
g5
sg22
I900000
sg23
I947861
sg24
I52
sg25
I0
sg26
I441096
sg27
I263413
sg28
F0.0
sg29
I1318763
sg30
I506765
ssS'HERMANN ROBERT J'
p222
(dp223
g3
g5
sg4
g5
sg6
F0.2806331682960852
sg8
I48357
sg9
I1630795
sg10
g7
sg11
I00
sg12
I-280000
sg13
S'robert.hermann@enron.com'
p224
sg15
I150000
sg16
g5
sg17
g5
sg18
g5
sg19
g5
sg20
I416441
sg21
g5
sg22
I700000
sg23
I668132
sg24
g5
sg25
g5
sg26
I480632
sg27
I262663
sg28
g7
sg29
I1297461
sg30
I187500
ssS'SCRIMSHAW MATTHEW'
p225
(dp226
g3
g5
sg4
g5
sg6
F1.0
sg8
g5
sg9
g7
sg10
g7
sg11
I00
sg12
g5
sg13
S'matthew.scrimshaw@enron.com'
p227
sg15
g5
sg16
g5
sg17
g5
sg18
g5
sg19
g5
sg20
g5
sg21
g5
sg22
g5
sg23
I759557
sg24
g5
sg25
g5
sg26
g5
sg27
g5
sg28
g7
sg29
g5
sg30
I759557
ssS'GATHMANN WILLIAM D'
p228
(dp229
g3
g5
sg4
g5
sg6
F0.9015123164864087
sg8
g5
sg9
g7
sg10
g7
sg11
I00
sg12
g5
sg13
g5
sg15
g5
sg16
I-72419
sg17
g5
sg18
g5
sg19
g5
sg20
g5
sg21
g5
sg22
g5
sg23
I1945360
sg24
g5
sg25
g5
sg26
I264013
sg27
g5
sg28
g7
sg29
g5
sg30
I1753766
ssS'HAEDICKE MARK E'
p230
(dp231
g3
I4009
sg4
I2157527
sg6
F0.7580059121348186
sg8
I76169
sg9
I2327219
sg10
F0.09273570324574962
sg11
I00
sg12
I-934484
sg13
S'mark.haedicke@enron.com'
p232
sg15
I983346
sg16
I-329825
sg17
I1847
sg18
g5
sg19
I1941
sg20
I52382
sg21
g5
sg22
I1150000
sg23
I803094
sg24
I180
sg25
I61
sg26
I524169
sg27
I374125
sg28
F0.015215764529807932
sg29
I3859065
sg30
I608750
ssS'BOWEN JR RAYMOND M'
p233
(dp234
g3
I1858
sg4
g5
sg6
g7
sg8
I65907
sg9
I1880656
sg10
F5.185185185185185
sg11
I01
sg12
I-833
sg13
S'raymond.bowen@enron.com'
p235
sg15
I974293
sg16
g5
sg17
I1593
sg18
g5
sg19
I27
sg20
I1621
sg21
g5
sg22
I1350000
sg23
I252055
sg24
I140
sg25
I15
sg26
I252055
sg27
I278601
sg28
F0.008073196986006458
sg29
I2669589
sg30
g5
ssS'GILLIS JOHN'
p236
(dp237
g3
g5
sg4
g5
sg6
F0.11446620193598861
sg8
g5
sg9
g7
sg10
g7
sg11
I00
sg12
g5
sg13
g5
sg15
g5
sg16
g5
sg17
g5
sg18
g5
sg19
g5
sg20
g5
sg21
g5
sg22
g5
sg23
I85641
sg24
g5
sg25
g5
sg26
I75838
sg27
g5
sg28
g7
sg29
g5
sg30
I9803
ssS'FITZGERALD JAY L'
p238
(dp239
g3
I936
sg4
g5
sg6
F0.40984841195236227
sg8
I23870
sg9
I2170393
sg10
F0.0625
sg11
I00
sg12
g5
sg13
S'jay.fitzgerald@enron.com'
p240
sg15
I556416
sg16
g5
sg17
I723
sg18
g5
sg19
I16
sg20
I285414
sg21
g5
sg22
I350000
sg23
I1621236
sg24
I1
sg25
I8
sg26
I956775
sg27
I199157
sg28
F0.008547008547008548
sg29
I1414857
sg30
I664461
ssS'MORAN MICHAEL P'
p241
(dp242
g3
I672
sg4
g5
sg6
F0.2692354651557151
sg8
g5
sg9
g7
sg10
F0.0
sg11
I00
sg12
g5
sg13
S'michael.moran@enron.com'
p243
sg15
g5
sg16
g5
sg17
I127
sg18
g5
sg19
I19
sg20
g5
sg21
g5
sg22
g5
sg23
I221141
sg24
I0
sg25
I0
sg26
I161602
sg27
g5
sg28
F0.0
sg29
g5
sg30
I59539
ssS'REDMOND BRIAN L'
p244
(dp245
g3
I1671
sg4
g5
sg6
F0.951676889314051
sg8
I14689
sg9
g7
sg10
F0.9230769230769231
sg11
I00
sg12
g5
sg13
S'brian.redmond@enron.com'
p246
sg15
g5
sg16
g5
sg17
I1063
sg18
g5
sg19
I221
sg20
g5
sg21
g5
sg22
g5
sg23
I7890324
sg24
I204
sg25
I49
sg26
I381285
sg27
I96840
sg28
F0.029323758228605626
sg29
I111529
sg30
I7509039
ssS'BAZELIDES PHILIP J'
p247
(dp248
g3
g5
sg4
I684694
sg6
F1.0
sg8
g5
sg9
g7
sg10
g7
sg11
I00
sg12
g5
sg13
g5
sg15
I93750
sg16
g5
sg17
g5
sg18
g5
sg19
g5
sg20
I874
sg21
g5
sg22
g5
sg23
I1599641
sg24
g5
sg25
g5
sg26
g5
sg27
I80818
sg28
g7
sg29
I860136
sg30
I1599641
ssS'BELDEN TIMOTHY N'
p249
(dp250
g3
I7991
sg4
I2144013
sg6
F0.8581360487258093
sg8
I17355
sg9
I6574703
sg10
F0.47107438016528924
sg11
I01
sg12
I-2334434
sg13
S'tim.belden@enron.com'
p251
sg15
g5
sg16
g5
sg17
I5521
sg18
g5
sg19
I484
sg20
I210698
sg21
g5
sg22
I5249999
sg23
I1110705
sg24
I228
sg25
I108
sg26
I157569
sg27
I213999
sg28
F0.013515204605180828
sg29
I5501630
sg30
I953136
ssS'DURAN WILLIAM D'
p252
(dp253
g3
I904
sg4
g5
sg6
F0.8847950222742259
sg8
I25785
sg9
I2601602
sg10
F8.833333333333334
sg11
I00
sg12
g5
sg13
S'w.duran@enron.com'
p254
sg15
I1105218
sg16
g5
sg17
I599
sg18
g5
sg19
I12
sg20
I1568
sg21
g5
sg22
I750000
sg23
I1640910
sg24
I106
sg25
I3
sg26
I189041
sg27
I210692
sg28
F0.00331858407079646
sg29
I2093263
sg30
I1451869
ssS'THORN TERENCE H'
p255
(dp256
g3
I266
sg4
I16586
sg6
F0.9241727960254025
sg8
I46145
sg9
g7
sg10
F0.0
sg11
I00
sg12
g5
sg13
S'terence.thorn@enron.com'
p257
sg15
I200000
sg16
g5
sg17
I73
sg18
g5
sg19
I41
sg20
I426629
sg21
g5
sg22
g5
sg23
I4817796
sg24
I0
sg25
I0
sg26
I365320
sg27
I222093
sg28
F0.0
sg29
I911453
sg30
I4452476
ssS'FASTOW ANDREW S'
p258
(dp259
g3
g5
sg4
g5
sg6
g7
sg8
I55921
sg9
I3535110
sg10
g7
sg11
I01
sg12
I-1386055
sg13
S'andrew.fastow@enron.com'
p260
sg15
I1736055
sg16
g5
sg17
g5
sg18
g5
sg19
g5
sg20
I277464
sg21
g5
sg22
I1300000
sg23
I1794412
sg24
g5
sg25
g5
sg26
I1794412
sg27
I440698
sg28
g7
sg29
I2424083
sg30
g5
ssS'FOY JOE'
p261
(dp262
g3
I57
sg4
I181755
sg6
F1.0
sg8
g5
sg9
g7
sg10
F0.0
sg11
I00
sg12
g5
sg13
S'tracy.foy@enron.com'
p263
sg15
g5
sg16
g5
sg17
I2
sg18
g5
sg19
I13
sg20
g5
sg21
g5
sg22
g5
sg23
I343434
sg24
I0
sg25
I0
sg26
g5
sg27
g5
sg28
F0.0
sg29
I181755
sg30
I343434
ssS'CALGER CHRISTOPHER F'
p264
(dp265
g3
I2598
sg4
g5
sg6
g7
sg8
I35818
sg9
I1616216
sg10
F1.3819444444444444
sg11
I01
sg12
I-262500
sg13
S'christopher.calger@enron.com'
p266
sg15
I375304
sg16
g5
sg17
I2188
sg18
g5
sg19
I144
sg20
I486
sg21
g5
sg22
I1250000
sg23
I126027
sg24
I199
sg25
I25
sg26
I126027
sg27
I240189
sg28
F0.00962278675904542
sg29
I1639297
sg30
g5
ssS'RICE KENNETH D'
p267
(dp268
g3
I905
sg4
g5
sg6
F0.8780809916753388
sg8
I46950
sg9
I24713175
sg10
F2.3333333333333335
sg11
I01
sg12
I-3504386
sg13
S'ken.rice@enron.com'
p269
sg15
I1617011
sg16
g5
sg17
I864
sg18
g5
sg19
I18
sg20
I174839
sg21
g5
sg22
I1750000
sg23
I22542539
sg24
I42
sg25
I4
sg26
I2748364
sg27
I420636
sg28
F0.004419889502762431
sg29
I505050
sg30
I19794175
ssS'KAMINSKI WINCENTY J'
p270
(dp271
g3
I4607
sg4
g5
sg6
F0.8708788703706929
sg8
I83585
sg9
I1651138
sg10
F0.002853563474387528
sg11
I00
sg12
g5
sg13
S'vince.kaminski@enron.com'
p272
sg15
I323466
sg16
g5
sg17
I583
sg18
g5
sg19
I14368
sg20
I4669
sg21
g5
sg22
I400000
sg23
I976037
sg24
I41
sg25
I171
sg26
I126027
sg27
I275101
sg28
F0.03711742999782939
sg29
I1086821
sg30
I850010
ssS'COX DAVID'
p273
(dp274
g3
I102
sg4
g5
sg6
F0.23717347311417925
sg8
I27861
sg9
I1609921
sg10
F0.0
sg11
I00
sg12
I-41250
sg13
S'chip.cox@enron.com'
p275
sg15
g5
sg16
g5
sg17
I71
sg18
g5
sg19
I33
sg20
I494
sg21
g5
sg22
I800000
sg23
I495633
sg24
I0
sg25
I4
sg26
I378082
sg27
I314288
sg28
F0.0392156862745098
sg29
I1101393
sg30
I117551
ssS'OVERDYKE JR JERE C'
p276
(dp277
g3
g5
sg4
g5
sg6
F0.7206993163550137
sg8
I18834
sg9
g7
sg10
g7
sg11
I00
sg12
g5
sg13
S'jere.overdyke@enron.com'
p278
sg15
I135836
sg16
g5
sg17
g5
sg18
g5
sg19
g5
sg20
I176
sg21
g5
sg22
g5
sg23
I7307594
sg24
g5
sg25
g5
sg26
I2041016
sg27
I94941
sg28
g7
sg29
I249787
sg30
I5266578
ssS'PEREIRA PAULO V. FERRAZ'
p279
(dp280
g3
g5
sg4
g5
sg6
g7
sg8
I27942
sg9
g7
sg10
g7
sg11
I00
sg12
I-101250
sg13
g5
sg15
g5
sg16
g5
sg17
g5
sg18
g5
sg19
g5
sg20
g5
sg21
I101250
sg22
g5
sg23
g5
sg24
g5
sg25
g5
sg26
g5
sg27
g5
sg28
g7
sg29
I27942
sg30
g5
ssS'STABLER FRANK'
p281
(dp282
g3
g5
sg4
g5
sg6
g7
sg8
I16514
sg9
I1251236
sg10
g7
sg11
I00
sg12
g5
sg13
S'frank.stabler@enron.com'
p283
sg15
g5
sg16
g5
sg17
g5
sg18
g5
sg19
g5
sg20
I356071
sg21
g5
sg22
I500000
sg23
I511734
sg24
g5
sg25
g5
sg26
I511734
sg27
I239502
sg28
g7
sg29
I1112087
sg30
g5
ssS'SKILLING JEFFREY K'
p284
(dp285
g3
I3627
sg4
g5
sg6
F0.7377267561269261
sg8
I29336
sg9
I32804930
sg10
F0.8148148148148148
sg11
I01
sg12
g5
sg13
S'jeff.skilling@enron.com'
p286
sg15
I1920000
sg16
g5
sg17
I2042
sg18
g5
sg19
I108
sg20
I22122
sg21
g5
sg22
I5600000
sg23
I26093672
sg24
I88
sg25
I30
sg26
I6843672
sg27
I1111258
sg28
F0.008271298593879239
sg29
I8682716
sg30
I19250000
ssS'BLAKE JR. NORMAN P'
p287
(dp288
g3
g5
sg4
g5
sg6
g7
sg8
I1279
sg9
g7
sg10
g7
sg11
I00
sg12
I-113784
sg13
g5
sg15
g5
sg16
g5
sg17
g5
sg18
g5
sg19
g5
sg20
g5
sg21
I113784
sg22
g5
sg23
g5
sg24
g5
sg25
g5
sg26
g5
sg27
g5
sg28
g7
sg29
I1279
sg30
g5
ssS'SHERRICK JEFFREY B'
p289
(dp290
g3
I613
sg4
g5
sg6
F0.7784414243522942
sg8
g5
sg9
g7
sg10
F1.56
sg11
I00
sg12
g5
sg13
S'jeffrey.sherrick@enron.com'
p291
sg15
g5
sg16
g5
sg17
I583
sg18
g5
sg19
I25
sg20
g5
sg21
g5
sg22
g5
sg23
I1832468
sg24
I39
sg25
I18
sg26
I405999
sg27
g5
sg28
F0.02936378466557912
sg29
g5
sg30
I1426469
ssS'PRENTICE JAMES'
p292
(dp293
g3
g5
sg4
I564348
sg6
F0.8093138150204559
sg8
g5
sg9
g7
sg10
g7
sg11
I00
sg12
g5
sg13
S'james.prentice@enron.com'
p294
sg15
g5
sg16
g5
sg17
g5
sg18
g5
sg19
g5
sg20
g5
sg21
g5
sg22
g5
sg23
I1095040
sg24
g5
sg25
g5
sg26
I208809
sg27
g5
sg28
g7
sg29
I564348
sg30
I886231
ssS'GRAY RODNEY'
p295
(dp296
g3
g5
sg4
I93585
sg6
g7
sg8
g5
sg9
g7
sg10
g7
sg11
I00
sg12
g5
sg13
g5
sg15
I365625
sg16
g5
sg17
g5
sg18
g5
sg19
g5
sg20
I680833
sg21
g5
sg22
g5
sg23
g5
sg24
g5
sg25
g5
sg26
g5
sg27
I6615
sg28
g7
sg29
I1146658
sg30
g5
ssS'PICKERING MARK R'
p297
(dp298
g3
I898
sg4
g5
sg6
F1.0
sg8
I31653
sg9
I983835
sg10
F0.1044776119402985
sg11
I00
sg12
g5
sg13
S'mark.pickering@enron.com'
p299
sg15
g5
sg16
g5
sg17
I728
sg18
I400000
sg19
I67
sg20
g5
sg21
g5
sg22
I300000
sg23
I28798
sg24
I7
sg25
I0
sg26
g5
sg27
I655037
sg28
F0.0
sg29
I1386690
sg30
I28798
ssS'NOLES JAMES L'
p300
(dp301
g3
g5
sg4
I774401
sg6
g7
sg8
g5
sg9
g7
sg10
g7
sg11
I00
sg12
g5
sg13
g5
sg15
g5
sg16
I-94556
sg17
g5
sg18
g5
sg19
g5
sg20
g5
sg21
g5
sg22
g5
sg23
I368705
sg24
g5
sg25
g5
sg26
I463261
sg27
g5
sg28
g7
sg29
I774401
sg30
g5
ssS'KEAN STEVEN J'
p302
(dp303
g3
I12754
sg4
g5
sg6
F0.32859370109603386
sg8
I41953
sg9
I7557980
sg10
F0.020713123243083296
sg11
I00
sg12
g5
sg13
S'steven.kean@enron.com'
p304
sg15
I300000
sg16
g5
sg17
I3639
sg18
g5
sg19
I6759
sg20
I1231
sg21
g5
sg22
I1000000
sg23
I6153642
sg24
I140
sg25
I387
sg26
I4131594
sg27
I404338
sg28
F0.03034342167163243
sg29
I1747522
sg30
I2022048
ssS'FOWLER PEGGY'
p305
(dp306
g3
I517
sg4
g5
sg6
F0.7027878528057863
sg8
g5
sg9
g7
sg10
F0.0
sg11
I00
sg12
g5
sg13
S'kulvinder.fowler@enron.com'
p307
sg15
g5
sg16
g5
sg17
I10
sg18
g5
sg19
I36
sg20
g5
sg21
g5
sg22
g5
sg23
I1884748
sg24
I0
sg25
I0
sg26
I560170
sg27
g5
sg28
F0.0
sg29
g5
sg30
I1324578
ssS'WASAFF GEORGE'
p308
(dp309
g3
I400
sg4
I831299
sg6
F0.8112420231790382
sg8
g5
sg9
I2641423
sg10
F0.7333333333333333
sg11
I00
sg12
I-583325
sg13
S'george.wasaff@enron.com'
p310
sg15
I200000
sg16
g5
sg17
I337
sg18
g5
sg19
I30
sg20
I1425
sg21
g5
sg22
I325000
sg23
I2056427
sg24
I22
sg25
I7
sg26
I388167
sg27
I259996
sg28
F0.0175
sg29
I1034395
sg30
I1668260
ssS'WHITE JR THOMAS E'
p311
(dp312
g3
g5
sg4
g5
sg6
F0.08564701963923563
sg8
I81353
sg9
I15911666
sg10
g7
sg11
I00
sg12
g5
sg13
S'thomas.white@enron.com'
p313
sg15
g5
sg16
g5
sg17
g5
sg18
g5
sg19
g5
sg20
I1085463
sg21
g5
sg22
I450000
sg23
I15144123
sg24
g5
sg25
g5
sg26
I13847074
sg27
I317543
sg28
g7
sg29
I1934359
sg30
I1297049
ssS'CHRISTODOULOU DIOMEDES'
p314
(dp315
g3
g5
sg4
g5
sg6
F0.8435755201027989
sg8
g5
sg9
g7
sg10
g7
sg11
I00
sg12
g5
sg13
S'diomedes.christodoulou@enron.com'
p316
sg15
g5
sg16
g5
sg17
g5
sg18
g5
sg19
g5
sg20
g5
sg21
g5
sg22
g5
sg23
I6077885
sg24
g5
sg25
g5
sg26
I950730
sg27
g5
sg28
g7
sg29
g5
sg30
I5127155
ssS'ALLEN PHILLIP K'
p317
(dp318
g3
I2902
sg4
I2869717
sg6
F1.0
sg8
I13868
sg9
I6106496
sg10
F0.0214123006833713
sg11
I00
sg12
I-3081055
sg13
S'phillip.allen@enron.com'
p319
sg15
I304805
sg16
I-126027
sg17
I1407
sg18
g5
sg19
I2195
sg20
I152
sg21
g5
sg22
I4175000
sg23
I1729541
sg24
I47
sg25
I65
sg26
I126027
sg27
I201955
sg28
F0.022398345968297727
sg29
I4484442
sg30
I1729541
ssS'SHARP VICTORIA T'
p320
(dp321
g3
I3136
sg4
I187469
sg6
F0.5688170867939191
sg8
I116337
sg9
I1342282
sg10
F0.17647058823529413
sg11
I00
sg12
g5
sg13
S'vicki.sharp@enron.com'
p322
sg15
I422158
sg16
g5
sg17
I2477
sg18
g5
sg19
I136
sg20
I2401
sg21
g5
sg22
I600000
sg23
I494136
sg24
I24
sg25
I6
sg26
I213063
sg27
I248146
sg28
F0.001913265306122449
sg29
I1576511
sg30
I281073
ssS'JAEDICKE ROBERT'
p323
(dp324
g3
g5
sg4
g5
sg6
F1.0
sg8
g5
sg9
g7
sg10
g7
sg11
I00
sg12
I-25000
sg13
g5
sg15
g5
sg16
I-44093
sg17
g5
sg18
g5
sg19
g5
sg20
g5
sg21
I108750
sg22
g5
sg23
I431750
sg24
g5
sg25
g5
sg26
I44093
sg27
g5
sg28
g7
sg29
I83750
sg30
I431750
ssS'WINOKUR JR. HERBERT S'
p325
(dp326
g3
g5
sg4
g5
sg6
g7
sg8
I1413
sg9
g7
sg10
g7
sg11
I00
sg12
I-25000
sg13
g5
sg15
g5
sg16
g5
sg17
g5
sg18
g5
sg19
g5
sg20
g5
sg21
I108579
sg22
g5
sg23
g5
sg24
g5
sg25
g5
sg26
g5
sg27
g5
sg28
g7
sg29
I84992
sg30
g5
ssS'BROWN MICHAEL'
p327
(dp328
g3
I1486
sg4
g5
sg6
g7
sg8
I49288
sg9
g7
sg10
F0.3170731707317073
sg11
I00
sg12
g5
sg13
S'michael.brown@enron.com'
p329
sg15
g5
sg16
g5
sg17
I761
sg18
g5
sg19
I41
sg20
g5
sg21
g5
sg22
g5
sg23
g5
sg24
I13
sg25
I1
sg26
g5
sg27
g5
sg28
F0.0006729475100942127
sg29
I49288
sg30
g5
ssS'BADUM JAMES P'
p330
(dp331
g3
g5
sg4
I178980
sg6
F1.0
sg8
I3486
sg9
g7
sg10
g7
sg11
I00
sg12
g5
sg13
g5
sg15
g5
sg16
g5
sg17
g5
sg18
g5
sg19
g5
sg20
g5
sg21
g5
sg22
g5
sg23
I257817
sg24
g5
sg25
g5
sg26
g5
sg27
g5
sg28
g7
sg29
I182466
sg30
I257817
ssS'HUGHES JAMES A'
p332
(dp333
g3
I719
sg4
g5
sg6
F0.6750447516706992
sg8
g5
sg9
g7
sg10
F1.0294117647058822
sg11
I00
sg12
g5
sg13
S'james.hughes@enron.com'
p334
sg15
g5
sg16
g5
sg17
I589
sg18
g5
sg19
I34
sg20
g5
sg21
g5
sg22
g5
sg23
I1118394
sg24
I35
sg25
I5
sg26
I363428
sg27
g5
sg28
F0.006954102920723227
sg29
g5
sg30
I754966
ssS'REYNOLDS LAWRENCE'
p335
(dp336
g3
g5
sg4
I51365
sg6
F0.9854996256416853
sg8
I8409
sg9
I4398290
sg10
g7
sg11
I00
sg12
I-200000
sg13
g5
sg15
I156250
sg16
I-140264
sg17
g5
sg18
g5
sg19
g5
sg20
I202052
sg21
g5
sg22
I100000
sg23
I4221891
sg24
g5
sg25
g5
sg26
I201483
sg27
I76399
sg28
g7
sg29
I394475
sg30
I4160672
ssS'DIMICHELE RICHARD G'
p337
(dp338
g3
g5
sg4
g5
sg6
F0.9848484848484849
sg8
I35812
sg9
I9580570
sg10
g7
sg11
I00
sg12
g5
sg13
S'richard.dimichele@enron.com'
p339
sg15
I694862
sg16
g5
sg17
g5
sg18
g5
sg19
g5
sg20
I374689
sg21
g5
sg22
I1000000
sg23
I8317782
sg24
g5
sg25
g5
sg26
I126027
sg27
I262788
sg28
g7
sg29
I2368151
sg30
I8191755
ssS'BHATNAGAR SANJAY'
p340
(dp341
g3
I523
sg4
g5
sg6
g7
sg8
g5
sg9
g7
sg10
F0.0
sg11
I00
sg12
g5
sg13
S'sanjay.bhatnagar@enron.com'
p342
sg15
g5
sg16
I15456290
sg17
I463
sg18
g5
sg19
I29
sg20
I137864
sg21
I137864
sg22
g5
sS'total_stock_value'
p343
S'NaN'
p344
sg24
I0
sg25
I1
sg26
I-2604490
sg27
g5
sg28
F0.0019120458891013384
sg29
I15456290
sg30
I2604490
ssS'CARTER REBECCA C'
p345
(dp346
g3
I312
sg4
g5
sg6
g7
sg8
g5
sg9
g7
sg10
F1.9333333333333333
sg11
I00
sg12
I-159792
sg13
S'rebecca.carter@enron.com'
p347
sg15
I75000
sg16
I-307301
sg17
I196
sg18
g5
sg19
I15
sg20
I540
sg21
g5
sg22
I300000
sg23
g5
sg24
I29
sg25
I7
sg26
I307301
sg27
I261809
sg28
F0.022435897435897436
sg29
I477557
sg30
g5
ssS'BUCHANAN HAROLD G'
p348
(dp349
g3
I1088
sg4
g5
sg6
F0.8136618350821336
sg8
I600
sg9
I1762522
sg10
F0.0
sg11
I00
sg12
g5
sg13
S'john.buchanan@enron.com'
p350
sg15
I304805
sg16
g5
sg17
I23
sg18
g5
sg19
I125
sg20
I1215
sg21
g5
sg22
I500000
sg23
I1014505
sg24
I0
sg25
I0
sg26
I189041
sg27
I248017
sg28
F0.0
sg29
I1054637
sg30
I825464
ssS'YEAP SOON'
p351
(dp352
g3
g5
sg4
g5
sg6
F1.0
sg8
I55097
sg9
g7
sg10
g7
sg11
I00
sg12
g5
sg13
g5
sg15
g5
sg16
g5
sg17
g5
sg18
g5
sg19
g5
sg20
g5
sg21
g5
sg22
g5
sg23
I192758
sg24
g5
sg25
g5
sg26
g5
sg27
g5
sg28
g7
sg29
I55097
sg30
I192758
ssS'MURRAY JULIA H'
p353
(dp354
g3
I2192
sg4
g5
sg6
F0.6702998187329382
sg8
I57580
sg9
I1226745
sg10
F0.24444444444444444
sg11
I00
sg12
g5
sg13
S'julia.murray@enron.com'
p355
sg15
I125000
sg16
g5
sg17
I395
sg18
g5
sg19
I45
sg20
I330
sg21
g5
sg22
I400000
sg23
I597461
sg24
I11
sg25
I2
sg26
I196983
sg27
I229284
sg28
F0.0009124087591240876
sg29
I812194
sg30
I400478
ssS'GARLAND C KEVIN'
p356
(dp357
g3
I209
sg4
g5
sg6
F0.7099747476156415
sg8
I48405
sg9
I1978099
sg10
F0.22727272727272727
sg11
I00
sg12
g5
sg13
S'kevin.garland@enron.com'
p358
sg15
I375304
sg16
g5
sg17
I178
sg18
g5
sg19
I44
sg20
I60814
sg21
g5
sg22
I850000
sg23
I896153
sg24
I10
sg25
I27
sg26
I259907
sg27
I231946
sg28
F0.1291866028708134
sg29
I1566469
sg30
I636246
ssS'DODSON KEITH'
p359
(dp360
g3
I176
sg4
g5
sg6
g7
sg8
I28164
sg9
g7
sg10
F0.7142857142857143
sg11
I00
sg12
g5
sg13
S'keith.dodson@enron.com'
p361
sg15
g5
sg16
g5
sg17
I114
sg18
g5
sg19
I14
sg20
I774
sg21
g5
sg22
I70000
sg23
g5
sg24
I10
sg25
I3
sg26
g5
sg27
I221003
sg28
F0.017045454545454544
sg29
I319941
sg30
g5
ssS'YEAGER F SCOTT'
p362
(dp363
g3
g5
sg4
g5
sg6
F0.6990930736662875
sg8
I53947
sg9
g7
sg10
g7
sg11
I01
sg12
g5
sg13
S'scott.yeager@enron.com'
p364
sg15
g5
sg16
g5
sg17
g5
sg18
g5
sg19
g5
sg20
I147950
sg21
g5
sg22
g5
sg23
I11884758
sg24
g5
sg25
g5
sg26
I3576206
sg27
I158403
sg28
g7
sg29
I360300
sg30
I8308552
ssS'HIRKO JOSEPH'
p365
(dp366
g3
g5
sg4
I10259
sg6
F1.0
sg8
I77978
sg9
g7
sg10
g7
sg11
I01
sg12
g5
sg13
S'joe.hirko@enron.com'
p367
sg15
g5
sg16
g5
sg17
g5
sg18
g5
sg19
g5
sg20
I2856
sg21
g5
sg22
g5
sg23
I30766064
sg24
g5
sg25
g5
sg26
g5
sg27
g5
sg28
g7
sg29
I91093
sg30
I30766064
ssS'DIETRICH JANET R'
p368
(dp369
g3
I2572
sg4
g5
sg6
F0.8310706149364614
sg8
I3475
sg9
I2715187
sg10
F4.841269841269841
sg11
I00
sg12
g5
sg13
S'janet.dietrich@enron.com'
p370
sg15
I556416
sg16
g5
sg17
I1902
sg18
g5
sg19
I63
sg20
I473
sg21
g5
sg22
I600000
sg23
I1865087
sg24
I305
sg25
I14
sg26
I315068
sg27
I250100
sg28
F0.005443234836702955
sg29
I1410464
sg30
I1550019
ssS'DERRICK JR. JAMES V'
p371
(dp372
g3
I2181
sg4
g5
sg6
F1.0
sg8
I51124
sg9
I10124288
sg10
F0.0704070407040704
sg11
I00
sg12
I-1284000
sg13
S'james.derrick@enron.com'
p373
sg15
I484000
sg16
I-1787380
sg17
I1401
sg18
g5
sg19
I909
sg20
I7482
sg21
g5
sg22
I800000
sg23
I8831913
sg24
I64
sg25
I20
sg26
I1787380
sg27
I492375
sg28
F0.009170105456212746
sg29
I550981
sg30
I8831913
ssS'FREVERT MARK A'
p374
(dp375
g3
I3275
sg4
I6426990
sg6
F0.713540281428528
sg8
I86987
sg9
I17683117
sg10
F11.523809523809524
sg11
I00
sg12
I-3367011
sg13
S'mark.frevert@enron.com'
p376
sg15
I1617011
sg16
g5
sg17
I2979
sg18
I2000000
sg19
I21
sg20
I7427621
sg21
g5
sg22
I2000000
sg23
I14622185
sg24
I242
sg25
I6
sg26
I4188667
sg27
I1060932
sg28
F0.00183206106870229
sg29
I17252530
sg30
I10433518
ssS'PAI LOU L'
p377
(dp378
g3
g5
sg4
g5
sg6
F0.6450672665508715
sg8
I32047
sg9
I25079809
sg10
g7
sg11
I00
sg12
g5
sg13
S'lou.pai@enron.com'
p379
sg15
g5
sg16
g5
sg17
g5
sg18
g5
sg19
g5
sg20
I1829457
sg21
g5
sg22
I1000000
sg23
I23817930
sg24
g5
sg25
g5
sg26
I8453763
sg27
I261879
sg28
g7
sg29
I3123383
sg30
I15364167
ssS'BAY FRANKLIN R'
p380
(dp381
g3
g5
sg4
I260455
sg6
g7
sg8
I129142
sg9
I702685
sg10
g7
sg11
I00
sg12
I-201641
sg13
S'frank.bay@enron.com'
p382
sg15
g5
sg16
I-82782
sg17
g5
sg18
g5
sg19
g5
sg20
I69
sg21
g5
sg22
I400000
sg23
I63014
sg24
g5
sg25
g5
sg26
I145796
sg27
I239671
sg28
g7
sg29
I827696
sg30
g5
ssS'HAYSLETT RODERICK J'
p383
(dp384
g3
I2649
sg4
g5
sg6
g7
sg8
g5
sg9
g7
sg10
F0.03298774740810556
sg11
I00
sg12
g5
sg13
S'rod.hayslett@enron.com'
p385
sg15
g5
sg16
g5
sg17
I571
sg18
g5
sg19
I1061
sg20
g5
sg21
g5
sg22
g5
sg23
I346663
sg24
I35
sg25
I38
sg26
I346663
sg27
g5
sg28
F0.014345035862589657
sg29
g5
sg30
g5
ssS'FUGH JOHN L'
p386
(dp387
g3
g5
sg4
I50591
sg6
F1.0
sg8
g5
sg9
g7
sg10
g7
sg11
I00
sg12
g5
sg13
g5
sg15
g5
sg16
g5
sg17
g5
sg18
g5
sg19
g5
sg20
g5
sg21
g5
sg22
g5
sg23
I176378
sg24
g5
sg25
g5
sg26
g5
sg27
g5
sg28
g7
sg29
I50591
sg30
I176378
ssS'FALLON JAMES B'
p388
(dp389
g3
I1755
sg4
g5
sg6
F0.40312870996771993
sg8
I95924
sg9
I5136987
sg10
F0.56
sg11
I00
sg12
g5
sg13
S'jim.fallon@enron.com'
p390
sg15
I374347
sg16
g5
sg17
I1604
sg18
g5
sg19
I75
sg20
I401481
sg21
g5
sg22
I2500000
sg23
I2332399
sg24
I42
sg25
I37
sg26
I1392142
sg27
I304588
sg28
F0.021082621082621083
sg29
I3676340
sg30
I940257
ssS'KOENIG MARK E'
p391
(dp392
g3
I2374
sg4
g5
sg6
F0.3498529990026327
sg8
I127017
sg9
I2930001
sg10
F0.8688524590163934
sg11
I01
sg12
g5
sg13
S'mark.koenig@enron.com'
p393
sg15
I300000
sg16
g5
sg17
I2271
sg18
g5
sg19
I61
sg20
I150458
sg21
g5
sg22
I700000
sg23
I1920055
sg24
I53
sg25
I15
sg26
I1248318
sg27
I309946
sg28
F0.006318449873631003
sg29
I1587421
sg30
I671737
ssS'IZZO LAWRENCE L'
p394
(dp395
g3
I496
sg4
g5
sg6
F0.3720239588452194
sg8
I28093
sg9
g7
sg10
F1.4736842105263157
sg11
I00
sg12
g5
sg13
S'larry.izzo@enron.com'
p396
sg15
I312500
sg16
g5
sg17
I437
sg18
g5
sg19
I19
sg20
I1553729
sg21
g5
sg22
g5
sg23
I5819980
sg24
I28
sg25
I5
sg26
I3654808
sg27
I85274
sg28
F0.010080645161290322
sg29
I1979596
sg30
I2165172
ssS'TILNEY ELIZABETH A'
p397
(dp398
g3
I460
sg4
g5
sg6
F0.5061889897794771
sg8
g5
sg9
I1715380
sg10
F0.5263157894736842
sg11
I00
sg12
I-575000
sg13
S'elizabeth.tilney@enron.com'
p399
sg15
I275000
sg16
g5
sg17
I379
sg18
g5
sg19
I19
sg20
I152055
sg21
g5
sg22
I300000
sg23
I1168042
sg24
I10
sg25
I11
sg26
I576792
sg27
I247338
sg28
F0.02391304347826087
sg29
I399393
sg30
I591250
ssS'MARTIN AMANDA K'
p400
(dp401
g3
I1522
sg4
I85430
sg6
F1.0
sg8
I8211
sg9
g7
sg10
F0.034782608695652174
sg11
I00
sg12
g5
sg13
S'a..martin@enron.com'
p402
sg15
I5145434
sg16
g5
sg17
I477
sg18
g5
sg19
I230
sg20
I2818454
sg21
g5
sg22
g5
sg23
I2070306
sg24
I8
sg25
I0
sg26
g5
sg27
I349487
sg28
F0.0
sg29
I8407016
sg30
I2070306
ssS'BUY RICHARD B'
p403
(dp404
g3
I3523
sg4
I649584
sg6
F0.7382305550636237
sg8
g5
sg9
I4675016
sg10
F0.14814814814814814
sg11
I00
sg12
I-694862
sg13
S'rick.buy@enron.com'
p405
sg15
I769862
sg16
g5
sg17
I2333
sg18
g5
sg19
I1053
sg20
I400572
sg21
g5
sg22
I900000
sg23
I3444470
sg24
I156
sg25
I71
sg26
I901657
sg27
I330546
sg28
F0.02015327845586148
sg29
I2355702
sg30
I2542813
ssS'CAUSEY RICHARD A'
p406
(dp407
g3
I1892
sg4
g5
sg6
g7
sg8
I30674
sg9
I3917252
sg10
F1.183673469387755
sg11
I01
sg12
I-235000
sg13
S'richard.causey@enron.com'
p408
sg15
I350000
sg16
g5
sg17
I1585
sg18
g5
sg19
I49
sg20
I307895
sg21
g5
sg22
I1000000
sg23
I2502063
sg24
I58
sg25
I12
sg26
I2502063
sg27
I415189
sg28
F0.006342494714587738
sg29
I1868758
sg30
g5
ssS'TAYLOR MITCHELL S'
p409
(dp410
g3
I533
sg4
I227449
sg6
F0.849455067064561
sg8
g5
sg9
I4610262
sg10
F0.0
sg11
I00
sg12
g5
sg13
S'mitchell.taylor@enron.com'
p411
sg15
g5
sg16
g5
sg17
I300
sg18
g5
sg19
I29
sg20
g5
sg21
g5
sg22
I600000
sg23
I3745048
sg24
I0
sg25
I0
sg26
I563798
sg27
I265214
sg28
F0.0
sg29
I1092663
sg30
I3181250
ssS'DONAHUE JR JEFFREY M'
p412
(dp413
g3
I865
sg4
g5
sg6
F0.7085370050361336
sg8
I96268
sg9
I2159589
sg10
F8.545454545454545
sg11
I00
sg12
I-300000
sg13
S'jeff.donahue@enron.com'
p414
sg15
g5
sg16
g5
sg17
I772
sg18
g5
sg19
I22
sg20
I891
sg21
g5
sg22
I800000
sg23
I1080988
sg24
I188
sg25
I11
sg26
I315068
sg27
I278601
sg28
F0.012716763005780347
sg29
I875760
sg30
I765920
ssS'GLISAN JR BEN F'
p415
(dp416
g3
I873
sg4
g5
sg6
F0.49416219465516487
sg8
I125978
sg9
I1653521
sg10
F3.25
sg11
I01
sg12
g5
sg13
S'ben.glisan@enron.com'
p417
sg15
I71023
sg16
g5
sg17
I874
sg18
g5
sg19
I16
sg20
I200308
sg21
g5
sg22
I600000
sg23
I778546
sg24
I52
sg25
I6
sg26
I393818
sg27
I274975
sg28
F0.006872852233676976
sg29
I1272284
sg30
I384728
ss.