(lp0
S'poi'
p1
aS'salary'
p2
aS'total_payments'
p3
aS'total_stock_value'
p4
aS'exercised_stock_options'
p5
aS'expenses'
p6
aS'restricted_stock'
p7
aS'shared_receipt_with_poi'
p8
aS'from_poi_frequency'
p9
aS'to_poi_frequency'
p10
aS'Total_income'
p11
aS'exercised_stock_percentage'
p12
a.